target datalayout = "e-m:e-p270:32:32-p271:32:32-p272:64:64-i64:64-i128:128-f80:128-n8:16:32:64-S128"
target triple = "x86_64-pc-linux-gnu"

@proto_lbtrm = internal global i32 0, align 4
@.str.135 = private unnamed_addr constant [32 x i8] c"LBT Reliable Multicast Protocol\00", align 1
@.str.136 = private unnamed_addr constant [7 x i8] c"LBT-RM\00", align 1
@.str.137 = private unnamed_addr constant [6 x i8] c"lbtrm\00", align 1
@lbtrm_dissector_handle = internal global ptr null, align 8
@.str.138 = private unnamed_addr constant [7 x i8] c"29West\00", align 1
@.str.139 = private unnamed_addr constant [13 x i8] c"224.10.10.10\00", align 1
@lbtrm_mc_address_low_host = internal global i32 0, align 4
@.str.140 = private unnamed_addr constant [15 x i8] c"mc_address_low\00", align 1
@.str.141 = private unnamed_addr constant [51 x i8] c"Multicast address range low (default 224.10.10.10)\00", align 1
@.str.142 = private unnamed_addr constant [102 x i8] c"Set the low end of the LBT-RM multicast address range (context transport_lbtrm_multicast_address_low)\00", align 1
@global_lbtrm_mc_address_low = internal global ptr @.str.139, align 8
@.str.143 = private unnamed_addr constant [13 x i8] c"224.10.10.14\00", align 1
@lbtrm_mc_address_high_host = internal global i32 0, align 4
@.str.144 = private unnamed_addr constant [16 x i8] c"mc_address_high\00", align 1
@.str.145 = private unnamed_addr constant [52 x i8] c"Multicast address range high (default 224.10.10.14)\00", align 1
@.str.146 = private unnamed_addr constant [104 x i8] c"Set the high end of the LBT-RM multicast address range (context transport_lbtrm_multicast_address_high)\00", align 1
@global_lbtrm_mc_address_high = internal global ptr @.str.143, align 8
@.str.147 = private unnamed_addr constant [10 x i8] c"dport_low\00", align 1
@.str.148 = private unnamed_addr constant [43 x i8] c"Destination port range low (default 14400)\00", align 1
@.str.149 = private unnamed_addr constant [99 x i8] c"Set the low end of the LBT-RM UDP destination port range (source transport_lbtrm_destination_port)\00", align 1
@global_lbtrm_dest_port_low = internal global i32 14400, align 4
@.str.150 = private unnamed_addr constant [11 x i8] c"dport_high\00", align 1
@.str.151 = private unnamed_addr constant [44 x i8] c"Destination port range high (default 14400)\00", align 1
@.str.152 = private unnamed_addr constant [100 x i8] c"Set the high end of the LBT-RM UDP destination port range (source transport_lbtrm_destination_port)\00", align 1
@global_lbtrm_dest_port_high = internal global i32 14400, align 4
@.str.153 = private unnamed_addr constant [10 x i8] c"sport_low\00", align 1
@.str.154 = private unnamed_addr constant [38 x i8] c"Source port range low (default 14390)\00", align 1
@.str.155 = private unnamed_addr constant [94 x i8] c"Set the low end of the LBT-RM UDP source port range (context transport_lbtrm_source_port_low)\00", align 1
@global_lbtrm_src_port_low = internal global i32 14390, align 4
@.str.156 = private unnamed_addr constant [11 x i8] c"sport_high\00", align 1
@.str.157 = private unnamed_addr constant [39 x i8] c"Source port range high (default 14399)\00", align 1
@.str.158 = private unnamed_addr constant [96 x i8] c"Set the high end of the LBT-RM UDP source port range (context transport_lbtrm_source_port_high)\00", align 1
@global_lbtrm_src_port_high = internal global i32 14399, align 4
@.str.159 = private unnamed_addr constant [13 x i8] c"224.10.10.21\00", align 1
@mim_incoming_mc_address_host = internal global i32 0, align 4
@.str.160 = private unnamed_addr constant [21 x i8] c"mim_incoming_address\00", align 1
@.str.161 = private unnamed_addr constant [54 x i8] c"MIM incoming multicast address (default 224.10.10.21)\00", align 1
@.str.162 = private unnamed_addr constant [70 x i8] c"Set the incoming MIM multicast address (context mim_incoming_address)\00", align 1
@global_mim_incoming_mc_address = internal global ptr @.str.159, align 8
@mim_outgoing_mc_address_host = internal global i32 0, align 4
@.str.163 = private unnamed_addr constant [21 x i8] c"mim_outgoing_address\00", align 1
@.str.164 = private unnamed_addr constant [54 x i8] c"MIM outgoing multicast address (default 224.10.10.21)\00", align 1
@.str.165 = private unnamed_addr constant [70 x i8] c"Set the outgoing MIM multicast address (context mim_outgoing_address)\00", align 1
@global_mim_outgoing_mc_address = internal global ptr @.str.159, align 8
@.str.166 = private unnamed_addr constant [19 x i8] c"mim_incoming_dport\00", align 1
@.str.167 = private unnamed_addr constant [34 x i8] c"MIM incoming port (default 14401)\00", align 1
@.str.168 = private unnamed_addr constant [70 x i8] c"Set the incoming MIM UDP port (context mim_incoming_destination_port)\00", align 1
@global_mim_incoming_dest_port = internal global i32 14401, align 4
@.str.169 = private unnamed_addr constant [19 x i8] c"mim_outgoing_dport\00", align 1
@.str.170 = private unnamed_addr constant [34 x i8] c"MIM outgoing port (default 14401)\00", align 1
@.str.171 = private unnamed_addr constant [70 x i8] c"Set the outgoing MIM UDP port (context mim_outgoing_destination_port)\00", align 1
@global_mim_outgoing_dest_port = internal global i32 14401, align 4
@global_lbtrm_expert_separate_naks = internal global i8 0, align 1
@lbtrm_expert_separate_naks = internal global i8 0, align 1
@.str.172 = private unnamed_addr constant [21 x i8] c"expert_separate_naks\00", align 1
@.str.173 = private unnamed_addr constant [29 x i8] c"Separate NAKs in Expert Info\00", align 1
@.str.174 = private unnamed_addr constant [78 x i8] c"Separate multiple NAKs from a single packet into distinct Expert Info entries\00", align 1
@global_lbtrm_expert_separate_ncfs = internal global i8 0, align 1
@lbtrm_expert_separate_ncfs = internal global i8 0, align 1
@.str.175 = private unnamed_addr constant [21 x i8] c"expert_separate_ncfs\00", align 1
@.str.176 = private unnamed_addr constant [29 x i8] c"Separate NCFs in Expert Info\00", align 1
@.str.177 = private unnamed_addr constant [78 x i8] c"Separate multiple NCFs from a single packet into distinct Expert Info entries\00", align 1
@global_lbtrm_sequence_analysis = internal global i8 0, align 1
@lbtrm_sequence_analysis = internal global i8 0, align 1
@.str.178 = private unnamed_addr constant [18 x i8] c"sequence_analysis\00", align 1
@.str.179 = private unnamed_addr constant [33 x i8] c"Perform sequence Number Analysis\00", align 1
@.str.180 = private unnamed_addr constant [87 x i8] c"Perform analysis on LBT-RM sequence numbers to determine out-of-order, gaps, loss, etc\00", align 1
@global_lbtrm_use_tag = internal global i8 0, align 1
@lbtrm_use_tag = internal global i8 0, align 1
@.str.181 = private unnamed_addr constant [17 x i8] c"use_lbtrm_domain\00", align 1
@.str.182 = private unnamed_addr constant [21 x i8] c"Use LBT-RM tag table\00", align 1
@.str.183 = private unnamed_addr constant [70 x i8] c"Use table of LBT-RM tags to decode the packet instead of above values\00", align 1
@.str.184 = private unnamed_addr constant [23 x i8] c"LBT-RM tag definitions\00", align 1
@.str.185 = private unnamed_addr constant [14 x i8] c"lbtrm_domains\00", align 1
@lbtrm_tag_entry = internal global ptr null, align 8
@lbtrm_tag_count = internal global i32 0, align 4
@.str.186 = private unnamed_addr constant [15 x i8] c"tnw_lbtrm_tags\00", align 1
@.str.187 = private unnamed_addr constant [12 x i8] c"LBT-RM Tags\00", align 1
@.str.188 = private unnamed_addr constant [30 x i8] c"A table to define LBT-RM tags\00", align 1
@.str.189 = private unnamed_addr constant [10 x i8] c"lbm_lbtrm\00", align 1
@lbtrm_tap_handle = internal global i32 -1, align 4

; Function Attrs: null_pointer_is_valid sspstrong uwtable
define hidden void @proto_register_lbtrm() #0 {
  %1 = alloca ptr, align 8
  %2 = alloca i32, align 4
  %3 = alloca ptr, align 8
  %4 = alloca ptr, align 8
  %5 = alloca i32, align 4
  %6 = alloca i32, align 4
  %7 = alloca i32, align 4
  %8 = alloca i32, align 4
  %9 = alloca i32, align 4
  %10 = alloca i32, align 4
  %11 = alloca i32, align 4
  %12 = alloca i32, align 4
  %13 = alloca i32, align 4
  %14 = alloca i32, align 4
  %15 = alloca i32, align 4
  %16 = alloca i32, align 4
  call void @llvm.lifetime.start.p0(i64 8, ptr %1) #9
  call void @llvm.lifetime.start.p0(i64 4, ptr %2) #9
  call void @llvm.lifetime.start.p0(i64 8, ptr %3) #9
  call void @llvm.lifetime.start.p0(i64 8, ptr %4) #9
  %17 = call i32 @proto_register_protocol(ptr noundef @.str.135, ptr noundef @.str.136, ptr noundef @.str.137)
  store i32 %17, ptr @proto_lbtrm, align 4
  %18 = load i32, ptr @proto_lbtrm, align 4
  call void @proto_register_field_array(i32 noundef %18, ptr noundef @proto_register_lbtrm.hf, i32 noundef 57)
  call void @proto_register_subtree_array(ptr noundef @proto_register_lbtrm.ett, i32 noundef 12)
  %19 = load i32, ptr @proto_lbtrm, align 4
  %20 = call ptr @expert_register_protocol(i32 noundef %19)
  store ptr %20, ptr %4, align 8
  %21 = load ptr, ptr %4, align 8
  call void @expert_register_field_array(ptr noundef %21, ptr noundef @proto_register_lbtrm.ei, i32 noundef 14)
  %22 = load i32, ptr @proto_lbtrm, align 4
  %23 = call ptr @register_dissector(ptr noundef @.str.137, ptr noundef @dissect_lbtrm, i32 noundef %22)
  store ptr %23, ptr @lbtrm_dissector_handle, align 8
  %24 = load i32, ptr @proto_lbtrm, align 4
  %25 = call ptr @prefs_register_protocol_subtree(ptr noundef @.str.138, i32 noundef %24, ptr noundef @proto_reg_handoff_lbtrm)
  store ptr %25, ptr %1, align 8
  %26 = call zeroext i1 @ws_inet_pton4(ptr noundef @.str.139, ptr noundef %2)
  call void @llvm.lifetime.start.p0(i64 4, ptr %5) #9
  call void @llvm.lifetime.start.p0(i64 4, ptr %6) #9
  %27 = load i32, ptr %2, align 4
  store i32 %27, ptr %6, align 4
  %28 = load i32, ptr %6, align 4
  %29 = call i1 @llvm.is.constant.i32(i32 %28)
  br i1 %29, label %30, label %46

30:                                               ; preds = %0
  %31 = load i32, ptr %6, align 4
  %32 = and i32 %31, 255
  %33 = shl i32 %32, 24
  %34 = load i32, ptr %6, align 4
  %35 = and i32 %34, 65280
  %36 = shl i32 %35, 8
  %37 = or i32 %33, %36
  %38 = load i32, ptr %6, align 4
  %39 = and i32 %38, 16711680
  %40 = lshr i32 %39, 8
  %41 = or i32 %37, %40
  %42 = load i32, ptr %6, align 4
  %43 = and i32 %42, -16777216
  %44 = lshr i32 %43, 24
  %45 = or i32 %41, %44
  store i32 %45, ptr %5, align 4
  br label %49

46:                                               ; preds = %0
  %47 = load i32, ptr %6, align 4
  %48 = call i32 asm "bswapl $0", "=r,0,~{dirflag},~{fpsr},~{flags}"(i32 %47) #11, !srcloc !6
  store i32 %48, ptr %5, align 4
  br label %49

49:                                               ; preds = %46, %30
  %50 = load i32, ptr %5, align 4
  store i32 %50, ptr %7, align 4
  call void @llvm.lifetime.end.p0(i64 4, ptr %6) #9
  call void @llvm.lifetime.end.p0(i64 4, ptr %5) #9
  %51 = load i32, ptr %7, align 4
  store i32 %51, ptr @lbtrm_mc_address_low_host, align 4
  %52 = load ptr, ptr %1, align 8
  call void @prefs_register_string_preference(ptr noundef %52, ptr noundef @.str.140, ptr noundef @.str.141, ptr noundef @.str.142, ptr noundef @global_lbtrm_mc_address_low)
  %53 = call zeroext i1 @ws_inet_pton4(ptr noundef @.str.143, ptr noundef %2)
  call void @llvm.lifetime.start.p0(i64 4, ptr %8) #9
  call void @llvm.lifetime.start.p0(i64 4, ptr %9) #9
  %54 = load i32, ptr %2, align 4
  store i32 %54, ptr %9, align 4
  %55 = load i32, ptr %9, align 4
  %56 = call i1 @llvm.is.constant.i32(i32 %55)
  br i1 %56, label %57, label %73

57:                                               ; preds = %49
  %58 = load i32, ptr %9, align 4
  %59 = and i32 %58, 255
  %60 = shl i32 %59, 24
  %61 = load i32, ptr %9, align 4
  %62 = and i32 %61, 65280
  %63 = shl i32 %62, 8
  %64 = or i32 %60, %63
  %65 = load i32, ptr %9, align 4
  %66 = and i32 %65, 16711680
  %67 = lshr i32 %66, 8
  %68 = or i32 %64, %67
  %69 = load i32, ptr %9, align 4
  %70 = and i32 %69, -16777216
  %71 = lshr i32 %70, 24
  %72 = or i32 %68, %71
  store i32 %72, ptr %8, align 4
  br label %76

73:                                               ; preds = %49
  %74 = load i32, ptr %9, align 4
  %75 = call i32 asm "bswapl $0", "=r,0,~{dirflag},~{fpsr},~{flags}"(i32 %74) #11, !srcloc !7
  store i32 %75, ptr %8, align 4
  br label %76

76:                                               ; preds = %73, %57
  %77 = load i32, ptr %8, align 4
  store i32 %77, ptr %10, align 4
  call void @llvm.lifetime.end.p0(i64 4, ptr %9) #9
  call void @llvm.lifetime.end.p0(i64 4, ptr %8) #9
  %78 = load i32, ptr %10, align 4
  store i32 %78, ptr @lbtrm_mc_address_high_host, align 4
  %79 = load ptr, ptr %1, align 8
  call void @prefs_register_string_preference(ptr noundef %79, ptr noundef @.str.144, ptr noundef @.str.145, ptr noundef @.str.146, ptr noundef @global_lbtrm_mc_address_high)
  %80 = load ptr, ptr %1, align 8
  call void @prefs_register_uint_preference(ptr noundef %80, ptr noundef @.str.147, ptr noundef @.str.148, ptr noundef @.str.149, i32 noundef 10, ptr noundef @global_lbtrm_dest_port_low)
  %81 = load ptr, ptr %1, align 8
  call void @prefs_register_uint_preference(ptr noundef %81, ptr noundef @.str.150, ptr noundef @.str.151, ptr noundef @.str.152, i32 noundef 10, ptr noundef @global_lbtrm_dest_port_high)
  %82 = load ptr, ptr %1, align 8
  call void @prefs_register_uint_preference(ptr noundef %82, ptr noundef @.str.153, ptr noundef @.str.154, ptr noundef @.str.155, i32 noundef 10, ptr noundef @global_lbtrm_src_port_low)
  %83 = load ptr, ptr %1, align 8
  call void @prefs_register_uint_preference(ptr noundef %83, ptr noundef @.str.156, ptr noundef @.str.157, ptr noundef @.str.158, i32 noundef 10, ptr noundef @global_lbtrm_src_port_high)
  %84 = call zeroext i1 @ws_inet_pton4(ptr noundef @.str.159, ptr noundef %2)
  call void @llvm.lifetime.start.p0(i64 4, ptr %11) #9
  call void @llvm.lifetime.start.p0(i64 4, ptr %12) #9
  %85 = load i32, ptr %2, align 4
  store i32 %85, ptr %12, align 4
  %86 = load i32, ptr %12, align 4
  %87 = call i1 @llvm.is.constant.i32(i32 %86)
  br i1 %87, label %88, label %104

88:                                               ; preds = %76
  %89 = load i32, ptr %12, align 4
  %90 = and i32 %89, 255
  %91 = shl i32 %90, 24
  %92 = load i32, ptr %12, align 4
  %93 = and i32 %92, 65280
  %94 = shl i32 %93, 8
  %95 = or i32 %91, %94
  %96 = load i32, ptr %12, align 4
  %97 = and i32 %96, 16711680
  %98 = lshr i32 %97, 8
  %99 = or i32 %95, %98
  %100 = load i32, ptr %12, align 4
  %101 = and i32 %100, -16777216
  %102 = lshr i32 %101, 24
  %103 = or i32 %99, %102
  store i32 %103, ptr %11, align 4
  br label %107

104:                                              ; preds = %76
  %105 = load i32, ptr %12, align 4
  %106 = call i32 asm "bswapl $0", "=r,0,~{dirflag},~{fpsr},~{flags}"(i32 %105) #11, !srcloc !8
  store i32 %106, ptr %11, align 4
  br label %107

107:                                              ; preds = %104, %88
  %108 = load i32, ptr %11, align 4
  store i32 %108, ptr %13, align 4
  call void @llvm.lifetime.end.p0(i64 4, ptr %12) #9
  call void @llvm.lifetime.end.p0(i64 4, ptr %11) #9
  %109 = load i32, ptr %13, align 4
  store i32 %109, ptr @mim_incoming_mc_address_host, align 4
  %110 = load ptr, ptr %1, align 8
  call void @prefs_register_string_preference(ptr noundef %110, ptr noundef @.str.160, ptr noundef @.str.161, ptr noundef @.str.162, ptr noundef @global_mim_incoming_mc_address)
  %111 = call zeroext i1 @ws_inet_pton4(ptr noundef @.str.159, ptr noundef %2)
  call void @llvm.lifetime.start.p0(i64 4, ptr %14) #9
  call void @llvm.lifetime.start.p0(i64 4, ptr %15) #9
  %112 = load i32, ptr %2, align 4
  store i32 %112, ptr %15, align 4
  %113 = load i32, ptr %15, align 4
  %114 = call i1 @llvm.is.constant.i32(i32 %113)
  br i1 %114, label %115, label %131

115:                                              ; preds = %107
  %116 = load i32, ptr %15, align 4
  %117 = and i32 %116, 255
  %118 = shl i32 %117, 24
  %119 = load i32, ptr %15, align 4
  %120 = and i32 %119, 65280
  %121 = shl i32 %120, 8
  %122 = or i32 %118, %121
  %123 = load i32, ptr %15, align 4
  %124 = and i32 %123, 16711680
  %125 = lshr i32 %124, 8
  %126 = or i32 %122, %125
  %127 = load i32, ptr %15, align 4
  %128 = and i32 %127, -16777216
  %129 = lshr i32 %128, 24
  %130 = or i32 %126, %129
  store i32 %130, ptr %14, align 4
  br label %134

131:                                              ; preds = %107
  %132 = load i32, ptr %15, align 4
  %133 = call i32 asm "bswapl $0", "=r,0,~{dirflag},~{fpsr},~{flags}"(i32 %132) #11, !srcloc !9
  store i32 %133, ptr %14, align 4
  br label %134

134:                                              ; preds = %131, %115
  %135 = load i32, ptr %14, align 4
  store i32 %135, ptr %16, align 4
  call void @llvm.lifetime.end.p0(i64 4, ptr %15) #9
  call void @llvm.lifetime.end.p0(i64 4, ptr %14) #9
  %136 = load i32, ptr %16, align 4
  store i32 %136, ptr @mim_outgoing_mc_address_host, align 4
  %137 = load ptr, ptr %1, align 8
  call void @prefs_register_string_preference(ptr noundef %137, ptr noundef @.str.163, ptr noundef @.str.164, ptr noundef @.str.165, ptr noundef @global_mim_outgoing_mc_address)
  %138 = load ptr, ptr %1, align 8
  call void @prefs_register_uint_preference(ptr noundef %138, ptr noundef @.str.166, ptr noundef @.str.167, ptr noundef @.str.168, i32 noundef 10, ptr noundef @global_mim_incoming_dest_port)
  %139 = load ptr, ptr %1, align 8
  call void @prefs_register_uint_preference(ptr noundef %139, ptr noundef @.str.169, ptr noundef @.str.170, ptr noundef @.str.171, i32 noundef 10, ptr noundef @global_mim_outgoing_dest_port)
  %140 = load i8, ptr @global_lbtrm_expert_separate_naks, align 1, !range !10, !noundef !11
  %141 = trunc i8 %140 to i1
  %142 = zext i1 %141 to i8
  store i8 %142, ptr @lbtrm_expert_separate_naks, align 1
  %143 = load ptr, ptr %1, align 8
  call void @prefs_register_bool_preference(ptr noundef %143, ptr noundef @.str.172, ptr noundef @.str.173, ptr noundef @.str.174, ptr noundef @global_lbtrm_expert_separate_naks)
  %144 = load i8, ptr @global_lbtrm_expert_separate_ncfs, align 1, !range !10, !noundef !11
  %145 = trunc i8 %144 to i1
  %146 = zext i1 %145 to i8
  store i8 %146, ptr @lbtrm_expert_separate_ncfs, align 1
  %147 = load ptr, ptr %1, align 8
  call void @prefs_register_bool_preference(ptr noundef %147, ptr noundef @.str.175, ptr noundef @.str.176, ptr noundef @.str.177, ptr noundef @global_lbtrm_expert_separate_ncfs)
  %148 = load i8, ptr @global_lbtrm_sequence_analysis, align 1, !range !10, !noundef !11
  %149 = trunc i8 %148 to i1
  %150 = zext i1 %149 to i8
  store i8 %150, ptr @lbtrm_sequence_analysis, align 1
  %151 = load ptr, ptr %1, align 8
  call void @prefs_register_bool_preference(ptr noundef %151, ptr noundef @.str.178, ptr noundef @.str.179, ptr noundef @.str.180, ptr noundef @global_lbtrm_sequence_analysis)
  %152 = load i8, ptr @global_lbtrm_use_tag, align 1, !range !10, !noundef !11
  %153 = trunc i8 %152 to i1
  %154 = zext i1 %153 to i8
  store i8 %154, ptr @lbtrm_use_tag, align 1
  %155 = load ptr, ptr %1, align 8
  call void @prefs_register_bool_preference(ptr noundef %155, ptr noundef @.str.181, ptr noundef @.str.182, ptr noundef @.str.183, ptr noundef @global_lbtrm_use_tag)
  %156 = call ptr @uat_new(ptr noundef @.str.184, i64 noundef 96, ptr noundef @.str.185, i1 noundef zeroext true, ptr noundef @lbtrm_tag_entry, ptr noundef @lbtrm_tag_count, i32 noundef 1, ptr noundef null, ptr noundef @lbtrm_tag_copy_cb, ptr noundef @lbtrm_tag_update_cb, ptr noundef @lbtrm_tag_free_cb, ptr noundef null, ptr noundef null, ptr noundef @lbtrm_tag_array)
  store ptr %156, ptr %3, align 8
  %157 = load ptr, ptr %1, align 8
  %158 = load ptr, ptr %3, align 8
  call void @prefs_register_uat_preference(ptr noundef %157, ptr noundef @.str.186, ptr noundef @.str.187, ptr noundef @.str.188, ptr noundef %158)
  %159 = call i32 @register_tap(ptr noundef @.str.189)
  store i32 %159, ptr @lbtrm_tap_handle, align 4
  call void @llvm.lifetime.end.p0(i64 8, ptr %4) #9
  call void @llvm.lifetime.end.p0(i64 8, ptr %3) #9
  call void @llvm.lifetime.end.p0(i64 4, ptr %2) #9
  call void @llvm.lifetime.end.p0(i64 8, ptr %1) #9
  ret void
}