; Function Attrs: null_pointer_is_valid sspstrong uwtable
define hidden void @proto_register_lbtrm() local_unnamed_addr #0 {
  %1 = alloca i32, align 4
  call void @llvm.lifetime.start.p0(i64 4, ptr nonnull %1) #10
  %2 = tail call i32 @proto_register_protocol(ptr noundef nonnull @.str.135, ptr noundef nonnull @.str.136, ptr noundef nonnull @.str.137)
  store i32 %2, ptr @proto_lbtrm, align 4
  tail call void @proto_register_field_array(i32 noundef %2, ptr noundef nonnull @proto_register_lbtrm.hf, i32 noundef 57)
  tail call void @proto_register_subtree_array(ptr noundef nonnull @proto_register_lbtrm.ett, i32 noundef 12)
  %3 = load i32, ptr @proto_lbtrm, align 4
  %4 = tail call ptr @expert_register_protocol(i32 noundef %3)
  tail call void @expert_register_field_array(ptr noundef %4, ptr noundef nonnull @proto_register_lbtrm.ei, i32 noundef 14)
  %5 = load i32, ptr @proto_lbtrm, align 4
  %6 = tail call ptr @register_dissector(ptr noundef nonnull @.str.137, ptr noundef nonnull @dissect_lbtrm, i32 noundef %5)
  store ptr %6, ptr @lbtrm_dissector_handle, align 8
  %7 = load i32, ptr @proto_lbtrm, align 4
  %8 = tail call ptr @prefs_register_protocol_subtree(ptr noundef nonnull @.str.138, i32 noundef %7, ptr noundef nonnull @proto_reg_handoff_lbtrm)
  %9 = call zeroext i1 @ws_inet_pton4(ptr noundef nonnull @.str.139, ptr noundef nonnull %1)
  %10 = load i32, ptr %1, align 4
  %11 = call i32 asm "bswapl $0", "=r,0,~{dirflag},~{fpsr},~{flags}"(i32 %10) #11, !srcloc !6
  store i32 %11, ptr @lbtrm_mc_address_low_host, align 4
  call void @prefs_register_string_preference(ptr noundef %8, ptr noundef nonnull @.str.140, ptr noundef nonnull @.str.141, ptr noundef nonnull @.str.142, ptr noundef nonnull @global_lbtrm_mc_address_low)
  %12 = call zeroext i1 @ws_inet_pton4(ptr noundef nonnull @.str.143, ptr noundef nonnull %1)
  %13 = load i32, ptr %1, align 4
  %14 = call i32 asm "bswapl $0", "=r,0,~{dirflag},~{fpsr},~{flags}"(i32 %13) #11, !srcloc !7
  store i32 %14, ptr @lbtrm_mc_address_high_host, align 4
  call void @prefs_register_string_preference(ptr noundef %8, ptr noundef nonnull @.str.144, ptr noundef nonnull @.str.145, ptr noundef nonnull @.str.146, ptr noundef nonnull @global_lbtrm_mc_address_high)
  call void @prefs_register_uint_preference(ptr noundef %8, ptr noundef nonnull @.str.147, ptr noundef nonnull @.str.148, ptr noundef nonnull @.str.149, i32 noundef 10, ptr noundef nonnull @global_lbtrm_dest_port_low)
  call void @prefs_register_uint_preference(ptr noundef %8, ptr noundef nonnull @.str.150, ptr noundef nonnull @.str.151, ptr noundef nonnull @.str.152, i32 noundef 10, ptr noundef nonnull @global_lbtrm_dest_port_high)
  call void @prefs_register_uint_preference(ptr noundef %8, ptr noundef nonnull @.str.153, ptr noundef nonnull @.str.154, ptr noundef nonnull @.str.155, i32 noundef 10, ptr noundef nonnull @global_lbtrm_src_port_low)
  call void @prefs_register_uint_preference(ptr noundef %8, ptr noundef nonnull @.str.156, ptr noundef nonnull @.str.157, ptr noundef nonnull @.str.158, i32 noundef 10, ptr noundef nonnull @global_lbtrm_src_port_high)
  %15 = call zeroext i1 @ws_inet_pton4(ptr noundef nonnull @.str.159, ptr noundef nonnull %1)
  %16 = load i32, ptr %1, align 4
  %17 = call i32 asm "bswapl $0", "=r,0,~{dirflag},~{fpsr},~{flags}"(i32 %16) #11, !srcloc !8
  store i32 %17, ptr @mim_incoming_mc_address_host, align 4
  call void @prefs_register_string_preference(ptr noundef %8, ptr noundef nonnull @.str.160, ptr noundef nonnull @.str.161, ptr noundef nonnull @.str.162, ptr noundef nonnull @global_mim_incoming_mc_address)
  %18 = call zeroext i1 @ws_inet_pton4(ptr noundef nonnull @.str.159, ptr noundef nonnull %1)
  %19 = load i32, ptr %1, align 4
  %20 = call i32 asm "bswapl $0", "=r,0,~{dirflag},~{fpsr},~{flags}"(i32 %19) #11, !srcloc !9
  store i32 %20, ptr @mim_outgoing_mc_address_host, align 4
  call void @prefs_register_string_preference(ptr noundef %8, ptr noundef nonnull @.str.163, ptr noundef nonnull @.str.164, ptr noundef nonnull @.str.165, ptr noundef nonnull @global_mim_outgoing_mc_address)
  call void @prefs_register_uint_preference(ptr noundef %8, ptr noundef nonnull @.str.166, ptr noundef nonnull @.str.167, ptr noundef nonnull @.str.168, i32 noundef 10, ptr noundef nonnull @global_mim_incoming_dest_port)
  call void @prefs_register_uint_preference(ptr noundef %8, ptr noundef nonnull @.str.169, ptr noundef nonnull @.str.170, ptr noundef nonnull @.str.171, i32 noundef 10, ptr noundef nonnull @global_mim_outgoing_dest_port)
  %21 = load i8, ptr @global_lbtrm_expert_separate_naks, align 1, !range !10, !noundef !11
  store i8 %21, ptr @lbtrm_expert_separate_naks, align 1
  call void @prefs_register_bool_preference(ptr noundef %8, ptr noundef nonnull @.str.172, ptr noundef nonnull @.str.173, ptr noundef nonnull @.str.174, ptr noundef nonnull @global_lbtrm_expert_separate_naks)
  %22 = load i8, ptr @global_lbtrm_expert_separate_ncfs, align 1, !range !10, !noundef !11
  store i8 %22, ptr @lbtrm_expert_separate_ncfs, align 1
  call void @prefs_register_bool_preference(ptr noundef %8, ptr noundef nonnull @.str.175, ptr noundef nonnull @.str.176, ptr noundef nonnull @.str.177, ptr noundef nonnull @global_lbtrm_expert_separate_ncfs)
  %23 = load i8, ptr @global_lbtrm_sequence_analysis, align 1, !range !10, !noundef !11
  store i8 %23, ptr @lbtrm_sequence_analysis, align 1
  call void @prefs_register_bool_preference(ptr noundef %8, ptr noundef nonnull @.str.178, ptr noundef nonnull @.str.179, ptr noundef nonnull @.str.180, ptr noundef nonnull @global_lbtrm_sequence_analysis)
  %24 = load i8, ptr @global_lbtrm_use_tag, align 1, !range !10, !noundef !11
  store i8 %24, ptr @lbtrm_use_tag, align 1
  call void @prefs_register_bool_preference(ptr noundef %8, ptr noundef nonnull @.str.181, ptr noundef nonnull @.str.182, ptr noundef nonnull @.str.183, ptr noundef nonnull @global_lbtrm_use_tag)
  %25 = call ptr @uat_new(ptr noundef nonnull @.str.184, i64 noundef 96, ptr noundef nonnull @.str.185, i1 noundef zeroext true, ptr noundef nonnull @lbtrm_tag_entry, ptr noundef nonnull @lbtrm_tag_count, i32 noundef 1, ptr noundef null, ptr noundef nonnull @lbtrm_tag_copy_cb, ptr noundef nonnull @lbtrm_tag_update_cb, ptr noundef nonnull @lbtrm_tag_free_cb, ptr noundef null, ptr noundef null, ptr noundef nonnull @lbtrm_tag_array)
  call void @prefs_register_uat_preference(ptr noundef %8, ptr noundef nonnull @.str.186, ptr noundef nonnull @.str.187, ptr noundef nonnull @.str.188, ptr noundef %25)
  %26 = call i32 @register_tap(ptr noundef nonnull @.str.189)
  store i32 %26, ptr @lbtrm_tap_handle, align 4
  call void @llvm.lifetime.end.p0(i64 4, ptr nonnull %1) #10
  ret void
}